target datalayout = "e-m:e-p270:32:32-p271:32:32-p272:64:64-i64:64-i128:128-f80:128-n8:16:32:64-S128"
target triple = "x86_64-pc-linux-gnu"

%struct.Rectangle = type { float, float, float, float }
%struct.Color = type { i8, i8, i8, i8 }
%struct.Vector2 = type { float, float }

; Function Attrs: nounwind uwtable
define void @DrawRectangleV(<2 x float> %0, <2 x float> %1, i32 %2) #0 {
  %4 = alloca %struct.Vector2, align 4
  %5 = alloca %struct.Vector2, align 4
  %6 = alloca %struct.Color, align 1
  %7 = alloca %struct.Rectangle, align 4
  %8 = alloca %struct.Vector2, align 4
  store <2 x float> %0, ptr %4, align 4
  store <2 x float> %1, ptr %5, align 4
  store i32 %2, ptr %6, align 1
  %9 = getelementptr inbounds nuw %struct.Rectangle, ptr %7, i32 0, i32 0
  %10 = getelementptr inbounds nuw %struct.Vector2, ptr %4, i32 0, i32 0
  %11 = load float, ptr %10, align 4
  store float %11, ptr %9, align 4
  %12 = getelementptr inbounds nuw %struct.Rectangle, ptr %7, i32 0, i32 1
  %13 = getelementptr inbounds nuw %struct.Vector2, ptr %4, i32 0, i32 1
  %14 = load float, ptr %13, align 4
  store float %14, ptr %12, align 4
  %15 = getelementptr inbounds nuw %struct.Rectangle, ptr %7, i32 0, i32 2
  %16 = getelementptr inbounds nuw %struct.Vector2, ptr %5, i32 0, i32 0
  %17 = load float, ptr %16, align 4
  store float %17, ptr %15, align 4
  %18 = getelementptr inbounds nuw %struct.Rectangle, ptr %7, i32 0, i32 3
  %19 = getelementptr inbounds nuw %struct.Vector2, ptr %5, i32 0, i32 1
  %20 = load float, ptr %19, align 4
  store float %20, ptr %18, align 4
  %21 = getelementptr inbounds nuw %struct.Vector2, ptr %8, i32 0, i32 0
  store float 0.000000e+00, ptr %21, align 4
  %22 = getelementptr inbounds nuw %struct.Vector2, ptr %8, i32 0, i32 1
  store float 0.000000e+00, ptr %22, align 4
  %23 = getelementptr inbounds nuw { <2 x float>, <2 x float> }, ptr %7, i32 0, i32 0
  %24 = load <2 x float>, ptr %23, align 4
  %25 = getelementptr inbounds nuw { <2 x float>, <2 x float> }, ptr %7, i32 0, i32 1
  %26 = load <2 x float>, ptr %25, align 4
  %27 = load <2 x float>, ptr %8, align 4
  %28 = load i32, ptr %6, align 1
  call void @DrawRectanglePro(<2 x float> %24, <2 x float> %26, <2 x float> %27, float noundef 0.000000e+00, i32 %28)
  ret void
}

; Function Attrs: nounwind uwtable
define void @DrawRectangle(i32 noundef %0, i32 noundef %1, i32 noundef %2, i32 noundef %3, i32 %4) #0 {
  %6 = alloca %struct.Color, align 1
  %7 = alloca i32, align 4
  %8 = alloca i32, align 4
  %9 = alloca i32, align 4
  %10 = alloca i32, align 4
  %11 = alloca %struct.Vector2, align 4
  %12 = alloca %struct.Vector2, align 4
  store i32 %4, ptr %6, align 1
  store i32 %0, ptr %7, align 4
  store i32 %1, ptr %8, align 4
  store i32 %2, ptr %9, align 4
  store i32 %3, ptr %10, align 4
  %13 = getelementptr inbounds nuw %struct.Vector2, ptr %11, i32 0, i32 0
  %14 = load i32, ptr %7, align 4
  %15 = sitofp i32 %14 to float
  store float %15, ptr %13, align 4
  %16 = getelementptr inbounds nuw %struct.Vector2, ptr %11, i32 0, i32 1
  %17 = load i32, ptr %8, align 4
  %18 = sitofp i32 %17 to float
  store float %18, ptr %16, align 4
  %19 = getelementptr inbounds nuw %struct.Vector2, ptr %12, i32 0, i32 0
  %20 = load i32, ptr %9, align 4
  %21 = sitofp i32 %20 to float
  store float %21, ptr %19, align 4
  %22 = getelementptr inbounds nuw %struct.Vector2, ptr %12, i32 0, i32 1
  %23 = load i32, ptr %10, align 4
  %24 = sitofp i32 %23 to float
  store float %24, ptr %22, align 4
  %25 = load <2 x float>, ptr %11, align 4
  %26 = load <2 x float>, ptr %12, align 4
  %27 = load i32, ptr %6, align 1
  call void @DrawRectangleV(<2 x float> %25, <2 x float> %26, i32 %27)
  ret void
}