; Function Attrs: nounwind uwtable
define void @DrawRectangle(i32 noundef %0, i32 noundef %1, i32 noundef %2, i32 noundef %3, i32 %4) local_unnamed_addr #4 {
  %6 = sitofp i32 %0 to float
  %.sroa.02.0.vec.insert = insertelement <2 x float> poison, float %6, i64 0
  %7 = sitofp i32 %1 to float
  %.sroa.02.4.vec.insert = insertelement <2 x float> %.sroa.02.0.vec.insert, float %7, i64 1
  %8 = sitofp i32 %2 to float
  %.sroa.0.0.vec.insert = insertelement <2 x float> poison, float %8, i64 0
  %9 = sitofp i32 %3 to float
  %.sroa.0.4.vec.insert = insertelement <2 x float> %.sroa.0.0.vec.insert, float %9, i64 1
  tail call void @DrawRectanglePro(<2 x float> %.sroa.02.4.vec.insert, <2 x float> %.sroa.0.4.vec.insert, <2 x float> zeroinitializer, float noundef 0.000000e+00, i32 %4)
  ret void
}